target datalayout = "e-m:e-p270:32:32-p271:32:32-p272:64:64-i64:64-i128:128-f80:128-n8:16:32:64-S128"
target triple = "x86_64-pc-linux-gnu"

%struct.location = type { i32, i32 }
%struct.block = type { ptr, ptr }
%struct.inst = type { ptr, ptr, i32, %struct.anon, ptr, %struct.location, ptr, ptr, i32, i32, i32, i32, %struct.block, %struct.block, ptr, i32 }
%struct.anon = type { i16, ptr, %struct.jv, ptr }
%struct.jv = type { i8, i8, i16, i32, %union.anon }
%union.anon = type { ptr }

; Function Attrs: nounwind uwtable
define internal ptr @block_take(ptr noundef %0) #0 {
  %2 = alloca ptr, align 8
  %3 = alloca ptr, align 8
  %4 = alloca ptr, align 8
  store ptr %0, ptr %3, align 8, !tbaa !46
  %5 = load ptr, ptr %3, align 8, !tbaa !46
  %6 = getelementptr inbounds nuw %struct.block, ptr %5, i32 0, i32 0
  %7 = load ptr, ptr %6, align 8, !tbaa !4
  %8 = icmp eq ptr %7, null
  br i1 %8, label %9, label %10

9:                                                ; preds = %1
  store ptr null, ptr %2, align 8
  br label %37

10:                                               ; preds = %1
  call void @llvm.lifetime.start.p0(i64 8, ptr %4) #7
  %11 = load ptr, ptr %3, align 8, !tbaa !46
  %12 = getelementptr inbounds nuw %struct.block, ptr %11, i32 0, i32 0
  %13 = load ptr, ptr %12, align 8, !tbaa !4
  store ptr %13, ptr %4, align 8, !tbaa !13
  %14 = load ptr, ptr %4, align 8, !tbaa !13
  %15 = getelementptr inbounds nuw %struct.inst, ptr %14, i32 0, i32 0
  %16 = load ptr, ptr %15, align 8, !tbaa !28
  %17 = icmp ne ptr %16, null
  br i1 %17, label %18, label %30

18:                                               ; preds = %10
  %19 = load ptr, ptr %4, align 8, !tbaa !13
  %20 = getelementptr inbounds nuw %struct.inst, ptr %19, i32 0, i32 0
  %21 = load ptr, ptr %20, align 8, !tbaa !28
  %22 = getelementptr inbounds nuw %struct.inst, ptr %21, i32 0, i32 1
  store ptr null, ptr %22, align 8, !tbaa !32
  %23 = load ptr, ptr %4, align 8, !tbaa !13
  %24 = getelementptr inbounds nuw %struct.inst, ptr %23, i32 0, i32 0
  %25 = load ptr, ptr %24, align 8, !tbaa !28
  %26 = load ptr, ptr %3, align 8, !tbaa !46
  %27 = getelementptr inbounds nuw %struct.block, ptr %26, i32 0, i32 0
  store ptr %25, ptr %27, align 8, !tbaa !4
  %28 = load ptr, ptr %4, align 8, !tbaa !13
  %29 = getelementptr inbounds nuw %struct.inst, ptr %28, i32 0, i32 0
  store ptr null, ptr %29, align 8, !tbaa !28
  br label %35

30:                                               ; preds = %10
  %31 = load ptr, ptr %3, align 8, !tbaa !46
  %32 = getelementptr inbounds nuw %struct.block, ptr %31, i32 0, i32 0
  store ptr null, ptr %32, align 8, !tbaa !4
  %33 = load ptr, ptr %3, align 8, !tbaa !46
  %34 = getelementptr inbounds nuw %struct.block, ptr %33, i32 0, i32 1
  store ptr null, ptr %34, align 8, !tbaa !10
  br label %35

35:                                               ; preds = %30, %18
  %36 = load ptr, ptr %4, align 8, !tbaa !13
  store ptr %36, ptr %2, align 8
  call void @llvm.lifetime.end.p0(i64 8, ptr %4) #7
  br label %37

37:                                               ; preds = %35, %9
  %38 = load ptr, ptr %2, align 8
  ret ptr %38
}

; Function Attrs: nounwind uwtable
define dso_local { i64, ptr } @block_take_imports(ptr noundef %0) #0 {
  %2 = alloca %struct.jv, align 8
  %3 = alloca ptr, align 8
  %4 = alloca ptr, align 8
  %5 = alloca %struct.jv, align 8
  %6 = alloca %struct.jv, align 8
  store ptr %0, ptr %3, align 8, !tbaa !46
  %7 = call { i64, ptr } @jv_array()
  %8 = getelementptr inbounds nuw { i64, ptr }, ptr %2, i32 0, i32 0
  %9 = extractvalue { i64, ptr } %7, 0
  store i64 %9, ptr %8, align 8
  %10 = getelementptr inbounds nuw { i64, ptr }, ptr %2, i32 0, i32 1
  %11 = extractvalue { i64, ptr } %7, 1
  store ptr %11, ptr %10, align 8
  br label %12

12:                                               ; preds = %68, %1
  %13 = load ptr, ptr %3, align 8, !tbaa !46
  %14 = getelementptr inbounds nuw %struct.block, ptr %13, i32 0, i32 0
  %15 = load ptr, ptr %14, align 8, !tbaa !4
  %16 = icmp ne ptr %15, null
  br i1 %16, label %17, label %33

17:                                               ; preds = %12
  %18 = load ptr, ptr %3, align 8, !tbaa !46
  %19 = getelementptr inbounds nuw %struct.block, ptr %18, i32 0, i32 0
  %20 = load ptr, ptr %19, align 8, !tbaa !4
  %21 = getelementptr inbounds nuw %struct.inst, ptr %20, i32 0, i32 2
  %22 = load i32, ptr %21, align 8, !tbaa !33
  %23 = icmp eq i32 %22, 38
  br i1 %23, label %31, label %24

24:                                               ; preds = %17
  %25 = load ptr, ptr %3, align 8, !tbaa !46
  %26 = getelementptr inbounds nuw %struct.block, ptr %25, i32 0, i32 0
  %27 = load ptr, ptr %26, align 8, !tbaa !4
  %28 = getelementptr inbounds nuw %struct.inst, ptr %27, i32 0, i32 2
  %29 = load i32, ptr %28, align 8, !tbaa !33
  %30 = icmp eq i32 %29, 37
  br label %31

31:                                               ; preds = %24, %17
  %32 = phi i1 [ true, %17 ], [ %30, %24 ]
  br label %33

33:                                               ; preds = %31, %12
  %34 = phi i1 [ false, %12 ], [ %32, %31 ]
  br i1 %34, label %35, label %70

35:                                               ; preds = %33
  call void @llvm.lifetime.start.p0(i64 8, ptr %4) #7
  %36 = load ptr, ptr %3, align 8, !tbaa !46
  %37 = call ptr @block_take(ptr noundef %36)
  store ptr %37, ptr %4, align 8, !tbaa !13
  %38 = load ptr, ptr %4, align 8, !tbaa !13
  %39 = getelementptr inbounds nuw %struct.inst, ptr %38, i32 0, i32 2
  %40 = load i32, ptr %39, align 8, !tbaa !33
  %41 = icmp eq i32 %40, 37
  br i1 %41, label %42, label %68

42:                                               ; preds = %35
  call void @llvm.lifetime.start.p0(i64 16, ptr %5) #7
  %43 = load ptr, ptr %4, align 8, !tbaa !13
  %44 = getelementptr inbounds nuw %struct.inst, ptr %43, i32 0, i32 3
  %45 = getelementptr inbounds nuw %struct.anon, ptr %44, i32 0, i32 2
  %46 = getelementptr inbounds nuw { i64, ptr }, ptr %45, i32 0, i32 0
  %47 = load i64, ptr %46, align 8
  %48 = getelementptr inbounds nuw { i64, ptr }, ptr %45, i32 0, i32 1
  %49 = load ptr, ptr %48, align 8
  %50 = call { i64, ptr } @jv_copy(i64 %47, ptr %49)
  %51 = getelementptr inbounds nuw { i64, ptr }, ptr %6, i32 0, i32 0
  %52 = extractvalue { i64, ptr } %50, 0
  store i64 %52, ptr %51, align 8
  %53 = getelementptr inbounds nuw { i64, ptr }, ptr %6, i32 0, i32 1
  %54 = extractvalue { i64, ptr } %50, 1
  store ptr %54, ptr %53, align 8
  %55 = getelementptr inbounds nuw { i64, ptr }, ptr %2, i32 0, i32 0
  %56 = load i64, ptr %55, align 8
  %57 = getelementptr inbounds nuw { i64, ptr }, ptr %2, i32 0, i32 1
  %58 = load ptr, ptr %57, align 8
  %59 = getelementptr inbounds nuw { i64, ptr }, ptr %6, i32 0, i32 0
  %60 = load i64, ptr %59, align 8
  %61 = getelementptr inbounds nuw { i64, ptr }, ptr %6, i32 0, i32 1
  %62 = load ptr, ptr %61, align 8
  %63 = call { i64, ptr } @jv_array_append(i64 %56, ptr %58, i64 %60, ptr %62)
  %64 = getelementptr inbounds nuw { i64, ptr }, ptr %5, i32 0, i32 0
  %65 = extractvalue { i64, ptr } %63, 0
  store i64 %65, ptr %64, align 8
  %66 = getelementptr inbounds nuw { i64, ptr }, ptr %5, i32 0, i32 1
  %67 = extractvalue { i64, ptr } %63, 1
  store ptr %67, ptr %66, align 8
  call void @llvm.memcpy.p0.p0.i64(ptr align 8 %2, ptr align 8 %5, i64 16, i1 false), !tbaa.struct !41
  call void @llvm.lifetime.end.p0(i64 16, ptr %5) #7
  br label %68

68:                                               ; preds = %42, %35
  %69 = load ptr, ptr %4, align 8, !tbaa !13
  call void @inst_free(ptr noundef %69)
  call void @llvm.lifetime.end.p0(i64 8, ptr %4) #7
  br label %12, !llvm.loop !58

70:                                               ; preds = %33
  %71 = load { i64, ptr }, ptr %2, align 8
  ret { i64, ptr } %71
}