; Function Attrs: nounwind uwtable
define dso_local { i64, ptr } @block_take_imports(ptr noundef captures(none) %0) local_unnamed_addr #1 {
  %2 = tail call { i64, ptr } @jv_array() #17
  %3 = load ptr, ptr %0, align 8, !tbaa !37
  %.not14 = icmp eq ptr %3, null
  br i1 %.not14, label %.critedge, label %.lr.ph.preheader

.lr.ph.preheader:                                 ; preds = %1
  %4 = extractvalue { i64, ptr } %2, 1
  %5 = extractvalue { i64, ptr } %2, 0
  br label %.lr.ph

.lr.ph:                                           ; preds = %.lr.ph.preheader, %26
  %6 = phi ptr [ %27, %26 ], [ %3, %.lr.ph.preheader ]
  %.sroa.412.016 = phi ptr [ %.sroa.412.1, %26 ], [ %4, %.lr.ph.preheader ]
  %.sroa.010.015 = phi i64 [ %.sroa.010.1, %26 ], [ %5, %.lr.ph.preheader ]
  %7 = getelementptr inbounds nuw i8, ptr %6, i64 16
  %8 = load i32, ptr %7, align 8, !tbaa !25
  %.off = add i32 %8, -37
  %switch = icmp ult i32 %.off, 2
  br i1 %switch, label %.critedge2, label %.critedge.loopexit

.critedge2:                                       ; preds = %.lr.ph
  %9 = load ptr, ptr %6, align 8, !tbaa !22
  %.not.i = icmp eq ptr %9, null
  br i1 %.not.i, label %12, label %10

10:                                               ; preds = %.critedge2
  %11 = getelementptr inbounds nuw i8, ptr %9, i64 8
  store ptr null, ptr %11, align 8, !tbaa !34
  store ptr %9, ptr %0, align 8, !tbaa !37
  store ptr null, ptr %6, align 8, !tbaa !22
  br label %block_take.exit

12:                                               ; preds = %.critedge2
  tail call void @llvm.memset.p0.i64(ptr noundef nonnull align 8 dereferenceable(16) %0, i8 0, i64 16, i1 false)
  %.pre = load i32, ptr %7, align 8, !tbaa !25
  br label %block_take.exit

block_take.exit:                                  ; preds = %10, %12
  %13 = phi i32 [ %8, %10 ], [ %.pre, %12 ]
  %14 = icmp eq i32 %13, 37
  br i1 %14, label %15, label %26

15:                                               ; preds = %block_take.exit
  %16 = getelementptr inbounds nuw i8, ptr %6, i64 40
  %17 = load i64, ptr %16, align 8
  %18 = getelementptr inbounds nuw i8, ptr %6, i64 48
  %19 = load ptr, ptr %18, align 8
  %20 = tail call { i64, ptr } @jv_copy(i64 %17, ptr %19) #17
  %21 = extractvalue { i64, ptr } %20, 0
  %22 = extractvalue { i64, ptr } %20, 1
  %23 = tail call { i64, ptr } @jv_array_append(i64 %.sroa.010.015, ptr %.sroa.412.016, i64 %21, ptr %22) #17
  %24 = extractvalue { i64, ptr } %23, 0
  %25 = extractvalue { i64, ptr } %23, 1
  br label %26

26:                                               ; preds = %15, %block_take.exit
  %.sroa.010.1 = phi i64 [ %24, %15 ], [ %.sroa.010.015, %block_take.exit ]
  %.sroa.412.1 = phi ptr [ %25, %15 ], [ %.sroa.412.016, %block_take.exit ]
  tail call fastcc void @inst_free(ptr noundef nonnull %6)
  %27 = load ptr, ptr %0, align 8, !tbaa !37
  %.not = icmp eq ptr %27, null
  br i1 %.not, label %.critedge.loopexit, label %.lr.ph, !llvm.loop !48

.critedge.loopexit:                               ; preds = %.lr.ph, %26
  %.sroa.010.0.lcssa.ph = phi i64 [ %.sroa.010.1, %26 ], [ %.sroa.010.015, %.lr.ph ]
  %.sroa.412.0.lcssa.ph = phi ptr [ %.sroa.412.1, %26 ], [ %.sroa.412.016, %.lr.ph ]
  %28 = insertvalue { i64, ptr } poison, i64 %.sroa.010.0.lcssa.ph, 0
  %29 = insertvalue { i64, ptr } %28, ptr %.sroa.412.0.lcssa.ph, 1
  br label %.critedge

.critedge:                                        ; preds = %.critedge.loopexit, %1
  %.fca.1.insert.merged = phi { i64, ptr } [ %2, %1 ], [ %29, %.critedge.loopexit ]
  ret { i64, ptr } %.fca.1.insert.merged
}